; Function Attrs: nounwind uwtable
define hidden void @SDL_UpdateAudio() local_unnamed_addr #0 {
  %1 = alloca %union.SDL_Event, align 8
  %2 = load ptr, ptr getelementptr inbounds nuw (i8, ptr @current_audio, i64 136), align 8
  tail call void @SDL_LockRWLockForReading_REAL(ptr noundef %2) #14
  %3 = load ptr, ptr getelementptr inbounds nuw (i8, ptr @current_audio, i64 176), align 8
  %4 = load ptr, ptr getelementptr inbounds nuw (i8, ptr @current_audio, i64 136), align 8
  tail call void @SDL_UnlockRWLock_REAL(ptr noundef %4) #14
  %.not = icmp eq ptr %3, null
  br i1 %.not, label %.loopexit, label %5

5:                                                ; preds = %0
  %6 = load ptr, ptr getelementptr inbounds nuw (i8, ptr @current_audio, i64 136), align 8
  tail call void @SDL_LockRWLockForWriting_REAL(ptr noundef %6) #14
  %7 = load ptr, ptr getelementptr inbounds nuw (i8, ptr @current_audio, i64 176), align 8
  store ptr null, ptr getelementptr inbounds nuw (i8, ptr @current_audio, i64 176), align 8
  store ptr getelementptr inbounds nuw (i8, ptr @current_audio, i64 168), ptr getelementptr inbounds nuw (i8, ptr @current_audio, i64 184), align 8
  %8 = load ptr, ptr getelementptr inbounds nuw (i8, ptr @current_audio, i64 136), align 8
  tail call void @SDL_UnlockRWLock_REAL(ptr noundef %8) #14
  %.not1011 = icmp eq ptr %7, null
  br i1 %.not1011, label %.loopexit, label %.lr.ph

.lr.ph:                                           ; preds = %5
  %9 = getelementptr inbounds nuw i8, ptr %1, i64 16
  %10 = getelementptr inbounds nuw i8, ptr %1, i64 20
  br label %11

11:                                               ; preds = %.lr.ph, %24
  %.012 = phi ptr [ %7, %.lr.ph ], [ %13, %24 ]
  %12 = getelementptr inbounds nuw i8, ptr %.012, i64 8
  %13 = load ptr, ptr %12, align 8
  %14 = load i32, ptr %.012, align 8
  %15 = call zeroext i1 @SDL_EventEnabled_REAL(i32 noundef %14) #14
  br i1 %15, label %16, label %24

16:                                               ; preds = %11
  call void @llvm.lifetime.start.p0(i64 128, ptr nonnull %1) #14
  call void @llvm.memset.p0.i64(ptr noundef nonnull align 8 dereferenceable(128) %1, i8 0, i64 128, i1 false)
  %17 = load i32, ptr %.012, align 8
  store i32 %17, ptr %1, align 8
  %18 = getelementptr inbounds nuw i8, ptr %.012, i64 4
  %19 = load i32, ptr %18, align 4
  store i32 %19, ptr %9, align 8
  %20 = trunc i32 %19 to i8
  %21 = and i8 %20, 1
  %22 = xor i8 %21, 1
  store i8 %22, ptr %10, align 4
  %23 = call zeroext i1 @SDL_PushEvent_REAL(ptr noundef nonnull %1) #14
  call void @llvm.lifetime.end.p0(i64 128, ptr nonnull %1) #14
  br label %24

24:                                               ; preds = %16, %11
  call void @SDL_free_REAL(ptr noundef nonnull %.012) #14
  %.not10 = icmp eq ptr %13, null
  br i1 %.not10, label %.loopexit, label %11, !llvm.loop !33

.loopexit:                                        ; preds = %24, %5, %0
  ret void
}